target datalayout = "e-m:e-p270:32:32-p271:32:32-p272:64:64-i64:64-i128:128-f80:128-n8:16:32:64-S128"
target triple = "x86_64-pc-linux-gnu"

%struct.Vec_Int_t_ = type { i32, i32, ptr }
%struct.Kit_DsdNtk_t_ = type { i16, i16, i16, i16, ptr, ptr, ptr }

@.str.1 = private unnamed_addr constant [12 x i8] c"node %4d : \00", align 1
@.str.2 = private unnamed_addr constant [9 x i8] c"%d=%d%c \00", align 1
@.str.3 = private unnamed_addr constant [2 x i8] c"\0A\00", align 1

; Function Attrs: inlinehint nounwind uwtable
define internal i32 @Abc_Var2Lit(i32 noundef %0, i32 noundef %1) #2 {
  %3 = alloca i32, align 4
  %4 = alloca i32, align 4
  store i32 %0, ptr %3, align 4, !tbaa !18
  store i32 %1, ptr %4, align 4, !tbaa !18
  %5 = load i32, ptr %3, align 4, !tbaa !18
  %6 = load i32, ptr %3, align 4, !tbaa !18
  %7 = add nsw i32 %5, %6
  %8 = load i32, ptr %4, align 4, !tbaa !18
  %9 = add nsw i32 %7, %8
  ret i32 %9
}

; Function Attrs: inlinehint nounwind uwtable
define internal i32 @Abc_LitIsCompl(i32 noundef %0) #2 {
  %2 = alloca i32, align 4
  store i32 %0, ptr %2, align 4, !tbaa !18
  %3 = load i32, ptr %2, align 4, !tbaa !18
  %4 = and i32 %3, 1
  ret i32 %4
}

; Function Attrs: inlinehint nounwind uwtable
define internal void @Vec_IntFree(ptr noundef %0) #2 {
  %2 = alloca ptr, align 8
  store ptr %0, ptr %2, align 8, !tbaa !10
  %3 = load ptr, ptr %2, align 8, !tbaa !10
  %4 = getelementptr inbounds nuw %struct.Vec_Int_t_, ptr %3, i32 0, i32 2
  %5 = load ptr, ptr %4, align 8, !tbaa !23
  %6 = icmp ne ptr %5, null
  br i1 %6, label %7, label %13

7:                                                ; preds = %1
  %8 = load ptr, ptr %2, align 8, !tbaa !10
  %9 = getelementptr inbounds nuw %struct.Vec_Int_t_, ptr %8, i32 0, i32 2
  %10 = load ptr, ptr %9, align 8, !tbaa !23
  call void @free(ptr noundef %10) #8
  %11 = load ptr, ptr %2, align 8, !tbaa !10
  %12 = getelementptr inbounds nuw %struct.Vec_Int_t_, ptr %11, i32 0, i32 2
  store ptr null, ptr %12, align 8, !tbaa !23
  br label %14

13:                                               ; preds = %1
  br label %14

14:                                               ; preds = %13, %7
  %15 = load ptr, ptr %2, align 8, !tbaa !10
  %16 = icmp ne ptr %15, null
  br i1 %16, label %17, label %19

17:                                               ; preds = %14
  %18 = load ptr, ptr %2, align 8, !tbaa !10
  call void @free(ptr noundef %18) #8
  store ptr null, ptr %2, align 8, !tbaa !10
  br label %20

19:                                               ; preds = %14
  br label %20

20:                                               ; preds = %19, %17
  ret void
}

; Function Attrs: inlinehint nounwind uwtable
define internal i32 @Abc_Lit2Var(i32 noundef %0) #2 {
  %2 = alloca i32, align 4
  store i32 %0, ptr %2, align 4, !tbaa !18
  %3 = load i32, ptr %2, align 4, !tbaa !18
  %4 = ashr i32 %3, 1
  ret i32 %4
}

; Function Attrs: inlinehint nounwind uwtable
define internal i32 @Vec_IntEntry(ptr noundef %0, i32 noundef %1) #2 {
  %3 = alloca ptr, align 8
  %4 = alloca i32, align 4
  store ptr %0, ptr %3, align 8, !tbaa !10
  store i32 %1, ptr %4, align 4, !tbaa !18
  %5 = load ptr, ptr %3, align 8, !tbaa !10
  %6 = getelementptr inbounds nuw %struct.Vec_Int_t_, ptr %5, i32 0, i32 2
  %7 = load ptr, ptr %6, align 8, !tbaa !23
  %8 = load i32, ptr %4, align 4, !tbaa !18
  %9 = sext i32 %8 to i64
  %10 = getelementptr inbounds i32, ptr %7, i64 %9
  %11 = load i32, ptr %10, align 4, !tbaa !18
  ret i32 %11
}

; Function Attrs: inlinehint nounwind uwtable
define internal i32 @Vec_IntSize(ptr noundef %0) #2 {
  %2 = alloca ptr, align 8
  store ptr %0, ptr %2, align 8, !tbaa !10
  %3 = load ptr, ptr %2, align 8, !tbaa !10
  %4 = getelementptr inbounds nuw %struct.Vec_Int_t_, ptr %3, i32 0, i32 1
  %5 = load i32, ptr %4, align 4, !tbaa !19
  ret i32 %5
}

; Function Attrs: inlinehint nounwind uwtable
define internal i32 @Abc_LitRegular(i32 noundef %0) #2 {
  %2 = alloca i32, align 4
  store i32 %0, ptr %2, align 4, !tbaa !18
  %3 = load i32, ptr %2, align 4, !tbaa !18
  %4 = and i32 %3, -2
  ret i32 %4
}

; Function Attrs: nounwind uwtable
define i32 @Amap_LibDeriveGatePerm(ptr noundef %0, ptr noundef %1, ptr noundef %2, ptr noundef %3, ptr noundef %4) #0 {
  %6 = alloca i32, align 4
  %7 = alloca ptr, align 8
  %8 = alloca ptr, align 8
  %9 = alloca ptr, align 8
  %10 = alloca ptr, align 8
  %11 = alloca ptr, align 8
  %12 = alloca i32, align 4
  %13 = alloca ptr, align 8
  %14 = alloca i32, align 4
  %15 = alloca i32, align 4
  %16 = alloca i32, align 4
  %17 = alloca i32, align 4
  %18 = alloca i32, align 4
  store ptr %0, ptr %7, align 8, !tbaa !3
  store ptr %1, ptr %8, align 8, !tbaa !61
  store ptr %2, ptr %9, align 8, !tbaa !31
  store ptr %3, ptr %10, align 8, !tbaa !8
  store ptr %4, ptr %11, align 8, !tbaa !75
  call void @llvm.lifetime.start.p0(i64 4, ptr %12) #8
  store i32 0, ptr %12, align 4, !tbaa !18
  call void @llvm.lifetime.start.p0(i64 8, ptr %13) #8
  call void @llvm.lifetime.start.p0(i64 4, ptr %14) #8
  call void @llvm.lifetime.start.p0(i64 4, ptr %15) #8
  call void @llvm.lifetime.start.p0(i64 4, ptr %16) #8
  call void @llvm.lifetime.start.p0(i64 4, ptr %17) #8
  %19 = load ptr, ptr %7, align 8, !tbaa !3
  %20 = load ptr, ptr %9, align 8, !tbaa !31
  %21 = load ptr, ptr %9, align 8, !tbaa !31
  %22 = getelementptr inbounds nuw %struct.Kit_DsdNtk_t_, ptr %21, i32 0, i32 3
  %23 = load i16, ptr %22, align 2, !tbaa !63
  %24 = zext i16 %23 to i32
  %25 = call i32 @Abc_LitRegular(i32 noundef %24)
  %26 = load ptr, ptr %10, align 8, !tbaa !8
  %27 = call ptr @Amap_LibDeriveGatePerm_rec(ptr noundef %19, ptr noundef %20, i32 noundef %25, ptr noundef %26)
  store ptr %27, ptr %13, align 8, !tbaa !10
  %28 = load ptr, ptr %13, align 8, !tbaa !10
  %29 = icmp eq ptr %28, null
  br i1 %29, label %30, label %31

30:                                               ; preds = %5
  store i32 0, ptr %6, align 4
  store i32 1, ptr %18, align 4
  br label %140

31:                                               ; preds = %5
  store i32 0, ptr %16, align 4, !tbaa !18
  br label %32

32:                                               ; preds = %70, %31
  %33 = load i32, ptr %16, align 4, !tbaa !18
  %34 = load ptr, ptr %13, align 8, !tbaa !10
  %35 = call i32 @Vec_IntSize(ptr noundef %34)
  %36 = icmp slt i32 %33, %35
  br i1 %36, label %37, label %41

37:                                               ; preds = %32
  %38 = load ptr, ptr %13, align 8, !tbaa !10
  %39 = load i32, ptr %16, align 4, !tbaa !18
  %40 = call i32 @Vec_IntEntry(ptr noundef %38, i32 noundef %39)
  store i32 %40, ptr %14, align 4, !tbaa !18
  br label %41

41:                                               ; preds = %37, %32
  %42 = phi i1 [ false, %32 ], [ true, %37 ]
  br i1 %42, label %43, label %73

43:                                               ; preds = %41
  %44 = load i32, ptr %16, align 4, !tbaa !18
  %45 = add nsw i32 %44, 1
  store i32 %45, ptr %17, align 4, !tbaa !18
  br label %46

46:                                               ; preds = %66, %43
  %47 = load i32, ptr %17, align 4, !tbaa !18
  %48 = load ptr, ptr %13, align 8, !tbaa !10
  %49 = call i32 @Vec_IntSize(ptr noundef %48)
  %50 = icmp slt i32 %47, %49
  br i1 %50, label %51, label %55

51:                                               ; preds = %46
  %52 = load ptr, ptr %13, align 8, !tbaa !10
  %53 = load i32, ptr %17, align 4, !tbaa !18
  %54 = call i32 @Vec_IntEntry(ptr noundef %52, i32 noundef %53)
  store i32 %54, ptr %15, align 4, !tbaa !18
  br label %55

55:                                               ; preds = %51, %46
  %56 = phi i1 [ false, %46 ], [ true, %51 ]
  br i1 %56, label %57, label %69

57:                                               ; preds = %55
  %58 = load i32, ptr %14, align 4, !tbaa !18
  %59 = call i32 @Abc_Lit2Var(i32 noundef %58)
  %60 = load i32, ptr %15, align 4, !tbaa !18
  %61 = call i32 @Abc_Lit2Var(i32 noundef %60)
  %62 = icmp eq i32 %59, %61
  br i1 %62, label %63, label %65

63:                                               ; preds = %57
  %64 = load ptr, ptr %13, align 8, !tbaa !10
  call void @Vec_IntFree(ptr noundef %64)
  store i32 0, ptr %6, align 4
  store i32 1, ptr %18, align 4
  br label %140

65:                                               ; preds = %57
  br label %66

66:                                               ; preds = %65
  %67 = load i32, ptr %17, align 4, !tbaa !18
  %68 = add nsw i32 %67, 1
  store i32 %68, ptr %17, align 4, !tbaa !18
  br label %46, !llvm.loop !76

69:                                               ; preds = %55
  br label %70

70:                                               ; preds = %69
  %71 = load i32, ptr %16, align 4, !tbaa !18
  %72 = add nsw i32 %71, 1
  store i32 %72, ptr %16, align 4, !tbaa !18
  br label %32, !llvm.loop !77

73:                                               ; preds = %41
  store i32 0, ptr %16, align 4, !tbaa !18
  br label %74

74:                                               ; preds = %96, %73
  %75 = load i32, ptr %16, align 4, !tbaa !18
  %76 = load ptr, ptr %13, align 8, !tbaa !10
  %77 = call i32 @Vec_IntSize(ptr noundef %76)
  %78 = icmp slt i32 %75, %77
  br i1 %78, label %79, label %83

79:                                               ; preds = %74
  %80 = load ptr, ptr %13, align 8, !tbaa !10
  %81 = load i32, ptr %16, align 4, !tbaa !18
  %82 = call i32 @Vec_IntEntry(ptr noundef %80, i32 noundef %81)
  store i32 %82, ptr %14, align 4, !tbaa !18
  br label %83

83:                                               ; preds = %79, %74
  %84 = phi i1 [ false, %74 ], [ true, %79 ]
  br i1 %84, label %85, label %99

85:                                               ; preds = %83
  %86 = load i32, ptr %16, align 4, !tbaa !18
  %87 = load i32, ptr %14, align 4, !tbaa !18
  %88 = call i32 @Abc_LitIsCompl(i32 noundef %87)
  %89 = call i32 @Abc_Var2Lit(i32 noundef %86, i32 noundef %88)
  %90 = trunc i32 %89 to i8
  %91 = load ptr, ptr %11, align 8, !tbaa !75
  %92 = load i32, ptr %14, align 4, !tbaa !18
  %93 = call i32 @Abc_Lit2Var(i32 noundef %92)
  %94 = sext i32 %93 to i64
  %95 = getelementptr inbounds i8, ptr %91, i64 %94
  store i8 %90, ptr %95, align 1, !tbaa !78
  br label %96

96:                                               ; preds = %85
  %97 = load i32, ptr %16, align 4, !tbaa !18
  %98 = add nsw i32 %97, 1
  store i32 %98, ptr %16, align 4, !tbaa !18
  br label %74, !llvm.loop !79

99:                                               ; preds = %83
  %100 = load ptr, ptr %13, align 8, !tbaa !10
  call void @Vec_IntFree(ptr noundef %100)
  %101 = load i32, ptr %12, align 4, !tbaa !18
  %102 = icmp ne i32 %101, 0
  br i1 %102, label %103, label %139

103:                                              ; preds = %99
  %104 = load ptr, ptr %10, align 8, !tbaa !8
  %105 = load i32, ptr %104, align 8
  %106 = and i32 %105, 65535
  %107 = call i32 (ptr, ...) @printf(ptr noundef @.str.1, i32 noundef %106)
  store i32 0, ptr %16, align 4, !tbaa !18
  br label %108

108:                                              ; preds = %134, %103
  %109 = load i32, ptr %16, align 4, !tbaa !18
  %110 = load ptr, ptr %10, align 8, !tbaa !8
  %111 = load i32, ptr %110, align 8
  %112 = lshr i32 %111, 16
  %113 = and i32 %112, 255
  %114 = icmp slt i32 %109, %113
  br i1 %114, label %115, label %137

115:                                              ; preds = %108
  %116 = load i32, ptr %16, align 4, !tbaa !18
  %117 = load ptr, ptr %11, align 8, !tbaa !75
  %118 = load i32, ptr %16, align 4, !tbaa !18
  %119 = sext i32 %118 to i64
  %120 = getelementptr inbounds i8, ptr %117, i64 %119
  %121 = load i8, ptr %120, align 1, !tbaa !78
  %122 = sext i8 %121 to i32
  %123 = call i32 @Abc_Lit2Var(i32 noundef %122)
  %124 = load ptr, ptr %11, align 8, !tbaa !75
  %125 = load i32, ptr %16, align 4, !tbaa !18
  %126 = sext i32 %125 to i64
  %127 = getelementptr inbounds i8, ptr %124, i64 %126
  %128 = load i8, ptr %127, align 1, !tbaa !78
  %129 = sext i8 %128 to i32
  %130 = call i32 @Abc_LitIsCompl(i32 noundef %129)
  %131 = icmp ne i32 %130, 0
  %132 = select i1 %131, i32 45, i32 43
  %133 = call i32 (ptr, ...) @printf(ptr noundef @.str.2, i32 noundef %116, i32 noundef %123, i32 noundef %132)
  br label %134

134:                                              ; preds = %115
  %135 = load i32, ptr %16, align 4, !tbaa !18
  %136 = add nsw i32 %135, 1
  store i32 %136, ptr %16, align 4, !tbaa !18
  br label %108, !llvm.loop !80

137:                                              ; preds = %108
  %138 = call i32 (ptr, ...) @printf(ptr noundef @.str.3)
  br label %139

139:                                              ; preds = %137, %99
  store i32 1, ptr %6, align 4
  store i32 1, ptr %18, align 4
  br label %140

140:                                              ; preds = %139, %63, %30
  call void @llvm.lifetime.end.p0(i64 4, ptr %17) #8
  call void @llvm.lifetime.end.p0(i64 4, ptr %16) #8
  call void @llvm.lifetime.end.p0(i64 4, ptr %15) #8
  call void @llvm.lifetime.end.p0(i64 4, ptr %14) #8
  call void @llvm.lifetime.end.p0(i64 8, ptr %13) #8
  call void @llvm.lifetime.end.p0(i64 4, ptr %12) #8
  %141 = load i32, ptr %6, align 4
  ret i32 %141
}