; Function Attrs: nounwind uwtable
define range(i32 0, 2) i32 @Amap_LibDeriveGatePerm(ptr noundef %0, ptr noundef readnone captures(none) %1, ptr noundef %2, ptr noundef readonly captures(none) %3, ptr noundef writeonly captures(none) %4) local_unnamed_addr #0 {
  %6 = getelementptr inbounds nuw i8, ptr %2, i64 6
  %7 = load i16, ptr %6, align 2, !tbaa !60
  %8 = and i16 %7, -2
  %9 = zext i16 %8 to i32
  %10 = tail call ptr @Amap_LibDeriveGatePerm_rec(ptr noundef %0, ptr noundef %2, i32 noundef %9, ptr noundef %3)
  %11 = icmp eq ptr %10, null
  br i1 %11, label %38, label %.critedge2.preheader

.critedge2.preheader:                             ; preds = %5
  %12 = getelementptr i8, ptr %10, i64 4
  %.val47 = load i32, ptr %12, align 4, !tbaa !3
  %13 = icmp sgt i32 %.val47, 0
  br i1 %13, label %.lr.ph56, label %.critedge4

.lr.ph56:                                         ; preds = %.critedge2.preheader
  %14 = getelementptr i8, ptr %10, i64 8
  %.val50 = load ptr, ptr %14, align 8, !tbaa !11
  %15 = zext nneg i32 %.val47 to i64
  %wide.trip.count66 = zext nneg i32 %.val47 to i64
  br label %17

.critedge2.loopexit:                              ; preds = %21, %17
  %indvars.iv.next = add nuw nsw i64 %indvars.iv, 1
  %exitcond67.not = icmp eq i64 %indvars.iv.next64, %wide.trip.count66
  br i1 %exitcond67.not, label %.lr.ph59, label %17, !llvm.loop !67

.lr.ph59:                                         ; preds = %.critedge2.loopexit
  %16 = getelementptr i8, ptr %10, i64 8
  br label %.critedge

17:                                               ; preds = %.lr.ph56, %.critedge2.loopexit
  %indvars.iv63 = phi i64 [ 0, %.lr.ph56 ], [ %indvars.iv.next64, %.critedge2.loopexit ]
  %indvars.iv = phi i64 [ 1, %.lr.ph56 ], [ %indvars.iv.next, %.critedge2.loopexit ]
  %18 = getelementptr inbounds nuw i32, ptr %.val50, i64 %indvars.iv63
  %19 = load i32, ptr %18, align 4, !tbaa !25
  %indvars.iv.next64 = add nuw nsw i64 %indvars.iv63, 1
  %20 = icmp samesign ult i64 %indvars.iv.next64, %15
  br i1 %20, label %.lr.ph, label %.critedge2.loopexit

21:                                               ; preds = %.lr.ph
  %indvars.iv.next61 = add nuw nsw i64 %indvars.iv60, 1
  %exitcond.not = icmp eq i64 %indvars.iv.next61, %wide.trip.count66
  br i1 %exitcond.not, label %.critedge2.loopexit, label %.lr.ph, !llvm.loop !68

.lr.ph:                                           ; preds = %17, %21
  %indvars.iv60 = phi i64 [ %indvars.iv.next61, %21 ], [ %indvars.iv, %17 ]
  %22 = getelementptr inbounds nuw i32, ptr %.val50, i64 %indvars.iv60
  %23 = load i32, ptr %22, align 4, !tbaa !25
  %.unshifted = xor i32 %23, %19
  %24 = icmp ult i32 %.unshifted, 2
  br i1 %24, label %.sink.split.sink.split, label %21

.critedge:                                        ; preds = %.lr.ph59, %.critedge
  %indvars.iv68 = phi i64 [ 0, %.lr.ph59 ], [ %indvars.iv.next69, %.critedge ]
  %.val48 = load ptr, ptr %16, align 8, !tbaa !11
  %25 = getelementptr inbounds nuw i32, ptr %.val48, i64 %indvars.iv68
  %26 = load i32, ptr %25, align 4, !tbaa !25
  %27 = and i32 %26, 1
  %indvars.iv68.tr = trunc i64 %indvars.iv68 to i32
  %28 = shl i32 %indvars.iv68.tr, 1
  %29 = or disjoint i32 %27, %28
  %30 = trunc i32 %29 to i8
  %31 = ashr i32 %26, 1
  %32 = sext i32 %31 to i64
  %33 = getelementptr inbounds i8, ptr %4, i64 %32
  store i8 %30, ptr %33, align 1, !tbaa !69
  %indvars.iv.next69 = add nuw nsw i64 %indvars.iv68, 1
  %.val = load i32, ptr %12, align 4, !tbaa !3
  %34 = sext i32 %.val to i64
  %35 = icmp slt i64 %indvars.iv.next69, %34
  br i1 %35, label %.critedge, label %.critedge4, !llvm.loop !70

.critedge4:                                       ; preds = %.critedge, %.critedge2.preheader
  %36 = getelementptr inbounds nuw i8, ptr %10, i64 8
  %37 = load ptr, ptr %36, align 8, !tbaa !11
  %.not.i51 = icmp eq ptr %37, null
  br i1 %.not.i51, label %.sink.split, label %.sink.split.sink.split

.sink.split.sink.split:                           ; preds = %.lr.ph, %.critedge4
  %.sink = phi ptr [ %37, %.critedge4 ], [ %.val50, %.lr.ph ]
  %.044.ph.ph = phi i32 [ 1, %.critedge4 ], [ 0, %.lr.ph ]
  tail call void @free(ptr noundef nonnull %.sink) #11
  br label %.sink.split

.sink.split:                                      ; preds = %.sink.split.sink.split, %.critedge4
  %.044.ph = phi i32 [ 1, %.critedge4 ], [ %.044.ph.ph, %.sink.split.sink.split ]
  tail call void @free(ptr noundef nonnull %10) #11
  br label %38

38:                                               ; preds = %.sink.split, %5
  %.044 = phi i32 [ 0, %5 ], [ %.044.ph, %.sink.split ]
  ret i32 %.044
}